target datalayout = "e-m:e-p270:32:32-p271:32:32-p272:64:64-i64:64-i128:128-f80:128-n8:16:32:64-S128"
target triple = "x86_64-pc-linux-gnu"

%"class.icu_77::SpoofData" = type { ptr, i8, ptr, i32, %"struct.std::atomic", ptr, ptr, ptr }
%"struct.std::atomic" = type { %"struct.std::__atomic_base" }
%"struct.std::__atomic_base" = type { i32 }
%"struct.icu_77::SpoofDataHeader" = type { i32, [4 x i8], i32, i32, i32, i32, i32, i32, i32, [15 x i32] }
%"class.icu_77::ConstChar16Ptr" = type { ptr }

; Function Attrs: inlinehint mustprogress nounwind uwtable
define linkonce_odr noundef ptr @_ZNK6icu_7714ConstChar16Ptr3getEv(ptr noundef nonnull align 8 dereferenceable(8) %0) #2 comdat align 2 {
  %2 = alloca ptr, align 8
  store ptr %0, ptr %2, align 8, !tbaa !113
  %3 = load ptr, ptr %2, align 8
  %4 = getelementptr inbounds nuw %"class.icu_77::ConstChar16Ptr", ptr %3, i32 0, i32 0
  %5 = load ptr, ptr %4, align 8, !tbaa !115
  ret ptr %5
}

; Function Attrs: inlinehint mustprogress uwtable
define linkonce_odr noundef ptr @_ZNK6icu_7714ConstChar16PtrcvPKDsEv(ptr noundef nonnull align 8 dereferenceable(8) %0) #8 comdat align 2 {
  %2 = alloca ptr, align 8
  store ptr %0, ptr %2, align 8, !tbaa !113
  %3 = load ptr, ptr %2, align 8
  %4 = call noundef ptr @_ZNK6icu_7714ConstChar16Ptr3getEv(ptr noundef nonnull align 8 dereferenceable(8) %3)
  ret ptr %4
}

; Function Attrs: inlinehint mustprogress nounwind uwtable
define linkonce_odr void @_ZN6icu_7714ConstChar16PtrD2Ev(ptr noundef nonnull align 8 dereferenceable(8) %0) unnamed_addr #2 comdat align 2 {
  %2 = alloca ptr, align 8
  store ptr %0, ptr %2, align 8, !tbaa !113
  %3 = load ptr, ptr %2, align 8
  %4 = getelementptr inbounds nuw %"class.icu_77::ConstChar16Ptr", ptr %3, i32 0, i32 0
  %5 = load ptr, ptr %4, align 8, !tbaa !115
  call void asm sideeffect "", "rm,~{memory},~{dirflag},~{fpsr},~{flags}"(ptr %5) #15, !srcloc !117
  ret void
}

; Function Attrs: inlinehint mustprogress uwtable
define linkonce_odr noundef nonnull align 8 dereferenceable(64) ptr @_ZN6icu_7713UnicodeString6appendENS_14ConstChar16PtrEi(ptr noundef nonnull align 8 dereferenceable(64) %0, ptr noundef %1, i32 noundef %2) #8 comdat align 2 {
  %4 = alloca ptr, align 8
  %5 = alloca ptr, align 8
  %6 = alloca i32, align 4
  store ptr %0, ptr %4, align 8, !tbaa !58
  store ptr %1, ptr %5, align 8, !tbaa !113
  store i32 %2, ptr %6, align 4, !tbaa !48
  %7 = load ptr, ptr %4, align 8
  %8 = call noundef ptr @_ZNK6icu_7714ConstChar16PtrcvPKDsEv(ptr noundef nonnull align 8 dereferenceable(8) %1)
  %9 = load i32, ptr %6, align 4, !tbaa !48
  %10 = call noundef nonnull align 8 dereferenceable(64) ptr @_ZN6icu_7713UnicodeString8doAppendEPKDsii(ptr noundef nonnull align 8 dereferenceable(64) %7, ptr noundef %8, i32 noundef 0, i32 noundef %9)
  ret ptr %10
}

; Function Attrs: inlinehint mustprogress nounwind uwtable
define linkonce_odr void @_ZN6icu_7714ConstChar16PtrC2EPKDs(ptr noundef nonnull align 8 dereferenceable(8) %0, ptr noundef %1) unnamed_addr #2 comdat align 2 {
  %3 = alloca ptr, align 8
  %4 = alloca ptr, align 8
  store ptr %0, ptr %3, align 8, !tbaa !113
  store ptr %1, ptr %4, align 8, !tbaa !69
  %5 = load ptr, ptr %3, align 8
  %6 = getelementptr inbounds nuw %"class.icu_77::ConstChar16Ptr", ptr %5, i32 0, i32 0
  %7 = load ptr, ptr %4, align 8, !tbaa !69
  store ptr %7, ptr %6, align 8, !tbaa !115
  ret void
}

; Function Attrs: inlinehint mustprogress uwtable
define linkonce_odr noundef nonnull align 8 dereferenceable(64) ptr @_ZN6icu_7713UnicodeString6appendEDs(ptr noundef nonnull align 8 dereferenceable(64) %0, i16 noundef zeroext %1) #8 comdat align 2 {
  %3 = alloca ptr, align 8
  %4 = alloca i16, align 2
  store ptr %0, ptr %3, align 8, !tbaa !58
  store i16 %1, ptr %4, align 2, !tbaa !70
  %5 = load ptr, ptr %3, align 8
  %6 = call noundef nonnull align 8 dereferenceable(64) ptr @_ZN6icu_7713UnicodeString8doAppendEPKDsii(ptr noundef nonnull align 8 dereferenceable(64) %5, ptr noundef %4, i32 noundef 0, i32 noundef 1)
  ret ptr %6
}

; Function Attrs: inlinehint mustprogress nounwind uwtable
define linkonce_odr noundef i32 @_ZN6icu_7719ConfusableDataUtils11keyToLengthEi(i32 noundef %0) #2 comdat align 2 {
  %2 = alloca i32, align 4
  store i32 %0, ptr %2, align 4, !tbaa !48
  %3 = load i32, ptr %2, align 4, !tbaa !48
  %4 = and i32 %3, -16777216
  %5 = lshr i32 %4, 24
  %6 = add i32 %5, 1
  ret i32 %6
}

; Function Attrs: inlinehint mustprogress nounwind uwtable
define linkonce_odr noundef i32 @_ZN6icu_7719ConfusableDataUtils14keyToCodePointEi(i32 noundef %0) #2 comdat align 2 {
  %2 = alloca i32, align 4
  store i32 %0, ptr %2, align 4, !tbaa !48
  %3 = load i32, ptr %2, align 4, !tbaa !48
  %4 = and i32 %3, 16777215
  ret i32 %4
}

; Function Attrs: mustprogress uwtable
define noundef i32 @_ZNK6icu_779SpoofData13appendValueToEiRNS_13UnicodeStringE(ptr noundef nonnull align 8 dereferenceable(56) %0, i32 noundef %1, ptr noundef nonnull align 8 dereferenceable(64) %2) #1 align 2 personality ptr @__gxx_personality_v0 {
  %4 = alloca ptr, align 8
  %5 = alloca i32, align 4
  %6 = alloca ptr, align 8
  %7 = alloca i32, align 4
  %8 = alloca i16, align 2
  %9 = alloca %"class.icu_77::ConstChar16Ptr", align 8
  %10 = alloca ptr, align 8
  %11 = alloca i32, align 4
  store ptr %0, ptr %4, align 8, !tbaa !8
  store i32 %1, ptr %5, align 4, !tbaa !48
  store ptr %2, ptr %6, align 8, !tbaa !58
  %12 = load ptr, ptr %4, align 8
  call void @llvm.lifetime.start.p0(i64 4, ptr %7) #15
  %13 = getelementptr inbounds nuw %"class.icu_77::SpoofData", ptr %12, i32 0, i32 5
  %14 = load ptr, ptr %13, align 8, !tbaa !99
  %15 = load i32, ptr %5, align 4, !tbaa !48
  %16 = sext i32 %15 to i64
  %17 = getelementptr inbounds i32, ptr %14, i64 %16
  %18 = load i32, ptr %17, align 4, !tbaa !48
  %19 = call noundef i32 @_ZN6icu_7719ConfusableDataUtils11keyToLengthEi(i32 noundef %18)
  store i32 %19, ptr %7, align 4, !tbaa !48
  call void @llvm.lifetime.start.p0(i64 2, ptr %8) #15
  %20 = getelementptr inbounds nuw %"class.icu_77::SpoofData", ptr %12, i32 0, i32 6
  %21 = load ptr, ptr %20, align 8, !tbaa !100
  %22 = load i32, ptr %5, align 4, !tbaa !48
  %23 = sext i32 %22 to i64
  %24 = getelementptr inbounds i16, ptr %21, i64 %23
  %25 = load i16, ptr %24, align 2, !tbaa !111
  store i16 %25, ptr %8, align 2, !tbaa !111
  %26 = load i32, ptr %7, align 4, !tbaa !48
  %27 = icmp eq i32 %26, 1
  br i1 %27, label %28, label %32

28:                                               ; preds = %3
  %29 = load ptr, ptr %6, align 8, !tbaa !58
  %30 = load i16, ptr %8, align 2, !tbaa !111
  %31 = call noundef nonnull align 8 dereferenceable(64) ptr @_ZN6icu_7713UnicodeString6appendEDs(ptr noundef nonnull align 8 dereferenceable(64) %29, i16 noundef zeroext %30)
  br label %47

32:                                               ; preds = %3
  %33 = load ptr, ptr %6, align 8, !tbaa !58
  %34 = getelementptr inbounds nuw %"class.icu_77::SpoofData", ptr %12, i32 0, i32 7
  %35 = load ptr, ptr %34, align 8, !tbaa !101
  %36 = load i16, ptr %8, align 2, !tbaa !111
  %37 = zext i16 %36 to i32
  %38 = sext i32 %37 to i64
  %39 = getelementptr inbounds i16, ptr %35, i64 %38
  call void @_ZN6icu_7714ConstChar16PtrC2EPKDs(ptr noundef nonnull align 8 dereferenceable(8) %9, ptr noundef %39)
  %40 = load i32, ptr %7, align 4, !tbaa !48
  %41 = invoke noundef nonnull align 8 dereferenceable(64) ptr @_ZN6icu_7713UnicodeString6appendENS_14ConstChar16PtrEi(ptr noundef nonnull align 8 dereferenceable(64) %33, ptr noundef %9, i32 noundef %40)
          to label %42 unwind label %43

42:                                               ; preds = %32
  call void @_ZN6icu_7714ConstChar16PtrD2Ev(ptr noundef nonnull align 8 dereferenceable(8) %9) #15
  br label %47

43:                                               ; preds = %32
  %44 = landingpad { ptr, i32 }
          cleanup
  %45 = extractvalue { ptr, i32 } %44, 0
  store ptr %45, ptr %10, align 8
  %46 = extractvalue { ptr, i32 } %44, 1
  store i32 %46, ptr %11, align 4
  call void @_ZN6icu_7714ConstChar16PtrD2Ev(ptr noundef nonnull align 8 dereferenceable(8) %9) #15
  call void @llvm.lifetime.end.p0(i64 2, ptr %8) #15
  call void @llvm.lifetime.end.p0(i64 4, ptr %7) #15
  br label %49

47:                                               ; preds = %42, %28
  %48 = load i32, ptr %7, align 4, !tbaa !48
  call void @llvm.lifetime.end.p0(i64 2, ptr %8) #15
  call void @llvm.lifetime.end.p0(i64 4, ptr %7) #15
  ret i32 %48

49:                                               ; preds = %43
  %50 = load ptr, ptr %10, align 8
  %51 = load i32, ptr %11, align 4
  %52 = insertvalue { ptr, i32 } poison, ptr %50, 0
  %53 = insertvalue { ptr, i32 } %52, i32 %51, 1
  resume { ptr, i32 } %53
}

; Function Attrs: mustprogress uwtable
define noundef i32 @_ZNK6icu_779SpoofData11codePointAtEi(ptr noundef nonnull align 8 dereferenceable(56) %0, i32 noundef %1) #1 align 2 {
  %3 = alloca ptr, align 8
  %4 = alloca i32, align 4
  store ptr %0, ptr %3, align 8, !tbaa !8
  store i32 %1, ptr %4, align 4, !tbaa !48
  %5 = load ptr, ptr %3, align 8
  %6 = getelementptr inbounds nuw %"class.icu_77::SpoofData", ptr %5, i32 0, i32 5
  %7 = load ptr, ptr %6, align 8, !tbaa !99
  %8 = load i32, ptr %4, align 4, !tbaa !48
  %9 = sext i32 %8 to i64
  %10 = getelementptr inbounds i32, ptr %7, i64 %9
  %11 = load i32, ptr %10, align 4, !tbaa !48
  %12 = call noundef i32 @_ZN6icu_7719ConfusableDataUtils14keyToCodePointEi(i32 noundef %11)
  ret i32 %12
}

; Function Attrs: mustprogress nounwind uwtable
define noundef i32 @_ZNK6icu_779SpoofData6lengthEv(ptr noundef nonnull align 8 dereferenceable(56) %0) #0 align 2 {
  %2 = alloca ptr, align 8
  store ptr %0, ptr %2, align 8, !tbaa !8
  %3 = load ptr, ptr %2, align 8
  %4 = getelementptr inbounds nuw %"class.icu_77::SpoofData", ptr %3, i32 0, i32 0
  %5 = load ptr, ptr %4, align 8, !tbaa !35
  %6 = getelementptr inbounds nuw %"struct.icu_77::SpoofDataHeader", ptr %5, i32 0, i32 4
  %7 = load i32, ptr %6, align 4, !tbaa !110
  ret i32 %7
}

; Function Attrs: mustprogress uwtable
define noundef i32 @_ZNK6icu_779SpoofData16confusableLookupEiRNS_13UnicodeStringE(ptr noundef nonnull align 8 dereferenceable(56) %0, i32 noundef %1, ptr noundef nonnull align 8 dereferenceable(64) %2) #1 align 2 {
  %4 = alloca i32, align 4
  %5 = alloca ptr, align 8
  %6 = alloca i32, align 4
  %7 = alloca ptr, align 8
  %8 = alloca i32, align 4
  %9 = alloca i32, align 4
  %10 = alloca i32, align 4
  %11 = alloca i32, align 4
  store ptr %0, ptr %5, align 8, !tbaa !8
  store i32 %1, ptr %6, align 4, !tbaa !48
  store ptr %2, ptr %7, align 8, !tbaa !58
  %12 = load ptr, ptr %5, align 8
  call void @llvm.lifetime.start.p0(i64 4, ptr %8) #15
  store i32 0, ptr %8, align 4, !tbaa !48
  call void @llvm.lifetime.start.p0(i64 4, ptr %9) #15
  %13 = call noundef i32 @_ZNK6icu_779SpoofData6lengthEv(ptr noundef nonnull align 8 dereferenceable(56) %12)
  store i32 %13, ptr %9, align 4, !tbaa !48
  br label %14

14:                                               ; preds = %39, %3
  call void @llvm.lifetime.start.p0(i64 4, ptr %10) #15
  %15 = load i32, ptr %8, align 4, !tbaa !48
  %16 = load i32, ptr %9, align 4, !tbaa !48
  %17 = add nsw i32 %15, %16
  %18 = sdiv i32 %17, 2
  store i32 %18, ptr %10, align 4, !tbaa !48
  %19 = load i32, ptr %10, align 4, !tbaa !48
  %20 = call noundef i32 @_ZNK6icu_779SpoofData11codePointAtEi(ptr noundef nonnull align 8 dereferenceable(56) %12, i32 noundef %19)
  %21 = load i32, ptr %6, align 4, !tbaa !48
  %22 = icmp sgt i32 %20, %21
  br i1 %22, label %23, label %25

23:                                               ; preds = %14
  %24 = load i32, ptr %10, align 4, !tbaa !48
  store i32 %24, ptr %9, align 4, !tbaa !48
  br label %35

25:                                               ; preds = %14
  %26 = load i32, ptr %10, align 4, !tbaa !48
  %27 = call noundef i32 @_ZNK6icu_779SpoofData11codePointAtEi(ptr noundef nonnull align 8 dereferenceable(56) %12, i32 noundef %26)
  %28 = load i32, ptr %6, align 4, !tbaa !48
  %29 = icmp slt i32 %27, %28
  br i1 %29, label %30, label %32

30:                                               ; preds = %25
  %31 = load i32, ptr %10, align 4, !tbaa !48
  store i32 %31, ptr %8, align 4, !tbaa !48
  br label %34

32:                                               ; preds = %25
  %33 = load i32, ptr %10, align 4, !tbaa !48
  store i32 %33, ptr %8, align 4, !tbaa !48
  store i32 2, ptr %11, align 4
  br label %36

34:                                               ; preds = %30
  br label %35

35:                                               ; preds = %34, %23
  store i32 0, ptr %11, align 4
  br label %36

36:                                               ; preds = %35, %32
  call void @llvm.lifetime.end.p0(i64 4, ptr %10) #15
  %37 = load i32, ptr %11, align 4
  switch i32 %37, label %59 [
    i32 0, label %38
    i32 2, label %44
  ]

38:                                               ; preds = %36
  br label %39

39:                                               ; preds = %38
  %40 = load i32, ptr %9, align 4, !tbaa !48
  %41 = load i32, ptr %8, align 4, !tbaa !48
  %42 = sub nsw i32 %40, %41
  %43 = icmp sgt i32 %42, 1
  br i1 %43, label %14, label %44, !llvm.loop !68

44:                                               ; preds = %39, %36
  %45 = load i32, ptr %8, align 4, !tbaa !48
  %46 = call noundef i32 @_ZNK6icu_779SpoofData11codePointAtEi(ptr noundef nonnull align 8 dereferenceable(56) %12, i32 noundef %45)
  %47 = load i32, ptr %6, align 4, !tbaa !48
  %48 = icmp ne i32 %46, %47
  br i1 %48, label %49, label %53

49:                                               ; preds = %44
  %50 = load ptr, ptr %7, align 8, !tbaa !58
  %51 = load i32, ptr %6, align 4, !tbaa !48
  %52 = call noundef nonnull align 8 dereferenceable(64) ptr @_ZN6icu_7713UnicodeString6appendEi(ptr noundef nonnull align 8 dereferenceable(64) %50, i32 noundef %51)
  store i32 1, ptr %4, align 4
  store i32 1, ptr %11, align 4
  br label %57

53:                                               ; preds = %44
  %54 = load i32, ptr %8, align 4, !tbaa !48
  %55 = load ptr, ptr %7, align 8, !tbaa !58
  %56 = call noundef i32 @_ZNK6icu_779SpoofData13appendValueToEiRNS_13UnicodeStringE(ptr noundef nonnull align 8 dereferenceable(56) %12, i32 noundef %54, ptr noundef nonnull align 8 dereferenceable(64) %55)
  store i32 %56, ptr %4, align 4
  store i32 1, ptr %11, align 4
  br label %57

57:                                               ; preds = %53, %49
  call void @llvm.lifetime.end.p0(i64 4, ptr %9) #15
  call void @llvm.lifetime.end.p0(i64 4, ptr %8) #15
  %58 = load i32, ptr %4, align 4
  ret i32 %58

59:                                               ; preds = %36
  unreachable
}