; Function Attrs: mustprogress uwtable
define noundef range(i32 1, 257) i32 @_ZNK6icu_779SpoofData16confusableLookupEiRNS_13UnicodeStringE(ptr noundef nonnull readonly align 8 captures(none) dereferenceable(56) %0, i32 noundef %1, ptr noundef nonnull align 8 dereferenceable(64) %2) local_unnamed_addr #1 align 2 personality ptr @__gxx_personality_v0 {
  %4 = alloca i16, align 2
  %5 = load ptr, ptr %0, align 8, !tbaa !29
  %6 = getelementptr inbounds nuw i8, ptr %5, i64 16
  %7 = load i32, ptr %6, align 4, !tbaa !51
  %8 = getelementptr inbounds nuw i8, ptr %0, i64 32
  %9 = load ptr, ptr %8, align 8, !tbaa !52
  br label %10

10:                                               ; preds = %10, %3
  %.021 = phi i32 [ 0, %3 ], [ %.223, %10 ]
  %.020 = phi i32 [ %7, %3 ], [ %.2, %10 ]
  %11 = add nsw i32 %.020, %.021
  %12 = sdiv i32 %11, 2
  %13 = sext i32 %12 to i64
  %14 = getelementptr inbounds i32, ptr %9, i64 %13
  %15 = load i32, ptr %14, align 4, !tbaa !53
  %16 = and i32 %15, 16777215
  %17 = icmp sgt i32 %16, %1
  %18 = icmp samesign ult i32 %16, %1
  %.223 = select i1 %17, i32 %.021, i32 %12
  %.2 = select i1 %17, i32 %12, i32 %.020
  %19 = select i1 %17, i1 true, i1 %18
  %20 = sub nsw i32 %.2, %.223
  %21 = icmp sgt i32 %20, 1
  %or.cond = select i1 %19, i1 %21, i1 false
  br i1 %or.cond, label %10, label %22, !llvm.loop !54

22:                                               ; preds = %10
  %23 = sext i32 %.223 to i64
  %24 = getelementptr inbounds i32, ptr %9, i64 %23
  %25 = load i32, ptr %24, align 4, !tbaa !53
  %26 = and i32 %25, 16777215
  %.not = icmp eq i32 %26, %1
  br i1 %.not, label %29, label %27

27:                                               ; preds = %22
  %28 = tail call noundef nonnull align 8 dereferenceable(64) ptr @_ZN6icu_7713UnicodeString6appendEi(ptr noundef nonnull align 8 dereferenceable(64) %2, i32 noundef %1)
  br label %_ZNK6icu_779SpoofData13appendValueToEiRNS_13UnicodeStringE.exit

29:                                               ; preds = %22
  %30 = lshr i32 %25, 24
  %31 = add nuw nsw i32 %30, 1
  %32 = getelementptr inbounds nuw i8, ptr %0, i64 40
  %33 = load ptr, ptr %32, align 8, !tbaa !55
  %34 = getelementptr inbounds i16, ptr %33, i64 %23
  %35 = load i16, ptr %34, align 2, !tbaa !56
  %36 = icmp ult i32 %25, 16777216
  br i1 %36, label %37, label %39

37:                                               ; preds = %29
  call void @llvm.lifetime.start.p0(i64 2, ptr nonnull %4)
  store i16 %35, ptr %4, align 2, !tbaa !49
  %38 = call noundef nonnull align 8 dereferenceable(64) ptr @_ZN6icu_7713UnicodeString8doAppendEPKDsii(ptr noundef nonnull align 8 dereferenceable(64) %2, ptr noundef nonnull %4, i32 noundef 0, i32 noundef 1)
  call void @llvm.lifetime.end.p0(i64 2, ptr nonnull %4)
  br label %_ZNK6icu_779SpoofData13appendValueToEiRNS_13UnicodeStringE.exit

39:                                               ; preds = %29
  %40 = getelementptr inbounds nuw i8, ptr %0, i64 48
  %41 = load ptr, ptr %40, align 8, !tbaa !58
  %42 = zext i16 %35 to i64
  %43 = getelementptr inbounds nuw i16, ptr %41, i64 %42
  %44 = invoke noundef nonnull align 8 dereferenceable(64) ptr @_ZN6icu_7713UnicodeString8doAppendEPKDsii(ptr noundef nonnull align 8 dereferenceable(64) %2, ptr noundef %43, i32 noundef 0, i32 noundef %31)
          to label %_ZN6icu_7713UnicodeString6appendENS_14ConstChar16PtrEi.exit.i unwind label %45

_ZN6icu_7713UnicodeString6appendENS_14ConstChar16PtrEi.exit.i: ; preds = %39
  tail call void asm sideeffect "", "rm,~{memory},~{dirflag},~{fpsr},~{flags}"(ptr %43) #21, !srcloc !59
  br label %_ZNK6icu_779SpoofData13appendValueToEiRNS_13UnicodeStringE.exit

45:                                               ; preds = %39
  %46 = landingpad { ptr, i32 }
          cleanup
  tail call void asm sideeffect "", "rm,~{memory},~{dirflag},~{fpsr},~{flags}"(ptr %43) #21, !srcloc !59
  resume { ptr, i32 } %46

_ZNK6icu_779SpoofData13appendValueToEiRNS_13UnicodeStringE.exit: ; preds = %_ZN6icu_7713UnicodeString6appendENS_14ConstChar16PtrEi.exit.i, %37, %27
  %.019 = phi i32 [ 1, %27 ], [ %31, %37 ], [ %31, %_ZN6icu_7713UnicodeString6appendENS_14ConstChar16PtrEi.exit.i ]
  ret i32 %.019
}